; Function Attrs: mustprogress nofree norecurse nosync nounwind willreturn memory(read, inaccessiblemem: none) uwtable
define internal range(i32 128, 225) i32 @ecx_security_bits(ptr noundef readonly captures(none) %0) #1 {
  %2 = getelementptr inbounds nuw i8, ptr %0, i64 8
  %3 = load ptr, ptr %2, align 8, !tbaa !12
  %4 = load i32, ptr %3, align 8, !tbaa !25
  %switch.selectcmp.case1 = icmp eq i32 %4, 1034
  %switch.selectcmp.case2 = icmp eq i32 %4, 1087
  %switch.selectcmp = or i1 %switch.selectcmp.case1, %switch.selectcmp.case2
  %5 = select i1 %switch.selectcmp, i32 128, i32 224
  ret i32 %5
}